; Function Attrs: mustprogress nounwind uwtable
define hidden noundef zeroext i1 @_ZN7datalog12is_directoryERKNSt7__cxx1112basic_stringIcSt11char_traitsIcESaIcEEE(ptr noundef nonnull align 8 dereferenceable(32) %name) local_unnamed_addr #4 {
entry:
  %st.i = alloca %struct.stat, align 8
  %status = alloca %struct.stat, align 8
  call void @llvm.lifetime.start.p0(i64 144, ptr nonnull %st.i)
  %call.i = tail call noundef ptr @_ZNKSt7__cxx1112basic_stringIcSt11char_traitsIcESaIcEE5c_strEv(ptr noundef nonnull align 8 dereferenceable(32) %name) #21
  %call1.i = call i32 @stat(ptr noundef %call.i, ptr noundef nonnull %st.i) #21
  %cmp.i = icmp eq i32 %call1.i, 0
  call void @llvm.lifetime.end.p0(i64 144, ptr nonnull %st.i)
  br i1 %cmp.i, label %if.end, label %return

if.end:                                           ; preds = %entry
  %call1 = tail call noundef ptr @_ZNKSt7__cxx1112basic_stringIcSt11char_traitsIcESaIcEE5c_strEv(ptr noundef nonnull align 8 dereferenceable(32) %name) #21
  %call2 = call i32 @stat(ptr noundef %call1, ptr noundef nonnull %status) #21
  %st_mode = getelementptr inbounds i8, ptr %status, i64 24
  %0 = load i32, ptr %st_mode, align 8
  %and = and i32 %0, 16384
  %cmp = icmp ne i32 %and, 0
  br label %return

return:                                           ; preds = %entry, %if.end
  %retval.0 = phi i1 [ %cmp, %if.end ], [ false, %entry ]
  ret i1 %retval.0
}